target datalayout = "e-m:e-p270:32:32-p271:32:32-p272:64:64-i64:64-i128:128-f80:128-n8:16:32:64-S128"
target triple = "x86_64-pc-linux-gnu"

%struct.H5L_class_t = type { i32, i32, ptr, ptr, ptr, ptr, ptr, ptr, ptr }

@.str = private unnamed_addr constant [100 x i8] c"generated/home/dtcxzyw/WorkSpace/Projects/compilers/llvm-opt-benchmark/bench/hdf5/hdf5/src/H5Lint.c\00", align 1
@H5E_LINK_g = external global i64, align 8
@H5E_NOTREGISTERED_g = external global i64, align 8
@H5L_table_g = internal global ptr null, align 8
@H5L_table_used_g = internal global i64 0, align 8
@__func__.H5L_unregister = private unnamed_addr constant [15 x i8] c"H5L_unregister\00", align 1
@.str.4 = private unnamed_addr constant [29 x i8] c"link class is not registered\00", align 1

; Function Attrs: nounwind uwtable
define i32 @H5L_unregister(i32 noundef %0) #0 {
  %2 = alloca i32, align 4
  %3 = alloca i64, align 8
  %4 = alloca i32, align 4
  %5 = alloca i8, align 1
  store i32 %0, ptr %2, align 4
  store i32 0, ptr %4, align 4
  store i8 0, ptr %5, align 1
  store i64 0, ptr %3, align 8
  br label %6

6:                                                ; preds = %20, %1
  %7 = load i64, ptr %3, align 8
  %8 = load i64, ptr @H5L_table_used_g, align 8
  %9 = icmp ult i64 %7, %8
  br i1 %9, label %10, label %23

10:                                               ; preds = %6
  %11 = load ptr, ptr @H5L_table_g, align 8
  %12 = load i64, ptr %3, align 8
  %13 = getelementptr inbounds %struct.H5L_class_t, ptr %11, i64 %12
  %14 = getelementptr inbounds %struct.H5L_class_t, ptr %13, i32 0, i32 1
  %15 = load i32, ptr %14, align 4
  %16 = load i32, ptr %2, align 4
  %17 = icmp eq i32 %15, %16
  br i1 %17, label %18, label %19

18:                                               ; preds = %10
  br label %23

19:                                               ; preds = %10
  br label %20

20:                                               ; preds = %19
  %21 = load i64, ptr %3, align 8
  %22 = add i64 %21, 1
  store i64 %22, ptr %3, align 8
  br label %6

23:                                               ; preds = %18, %6
  %24 = load i64, ptr %3, align 8
  %25 = load i64, ptr @H5L_table_used_g, align 8
  %26 = icmp uge i64 %24, %25
  br i1 %26, label %27, label %42

27:                                               ; preds = %23
  br label %28

28:                                               ; preds = %27
  br label %29

29:                                               ; preds = %28
  br label %30

30:                                               ; preds = %29
  %31 = load i64, ptr @H5E_LINK_g, align 8
  %32 = load i64, ptr @H5E_NOTREGISTERED_g, align 8
  %33 = call i32 (ptr, ptr, i32, i64, i64, ptr, ...) @H5E_printf_stack(ptr noundef @.str, ptr noundef @__func__.H5L_unregister, i32 noundef 378, i64 noundef %31, i64 noundef %32, ptr noundef @.str.4)
  br label %34

34:                                               ; preds = %30
  store i8 1, ptr %5, align 1
  %35 = load i8, ptr %5, align 1
  %36 = trunc i8 %35 to i1
  %37 = zext i1 %36 to i8
  store i8 %37, ptr %5, align 1
  br label %38

38:                                               ; preds = %34
  br label %39

39:                                               ; preds = %38
  store i32 -1, ptr %4, align 4
  br label %57

40:                                               ; No predecessors!
  br label %41

41:                                               ; preds = %40
  br label %42

42:                                               ; preds = %41, %23
  %43 = load ptr, ptr @H5L_table_g, align 8
  %44 = load i64, ptr %3, align 8
  %45 = getelementptr inbounds %struct.H5L_class_t, ptr %43, i64 %44
  %46 = load ptr, ptr @H5L_table_g, align 8
  %47 = load i64, ptr %3, align 8
  %48 = add i64 %47, 1
  %49 = getelementptr inbounds %struct.H5L_class_t, ptr %46, i64 %48
  %50 = load i64, ptr @H5L_table_used_g, align 8
  %51 = sub i64 %50, 1
  %52 = load i64, ptr %3, align 8
  %53 = sub i64 %51, %52
  %54 = mul i64 64, %53
  call void @llvm.memmove.p0.p0.i64(ptr align 8 %45, ptr align 8 %49, i64 %54, i1 false)
  %55 = load i64, ptr @H5L_table_used_g, align 8
  %56 = add i64 %55, -1
  store i64 %56, ptr @H5L_table_used_g, align 8
  br label %57

57:                                               ; preds = %42, %39
  %58 = load i32, ptr %4, align 4
  ret i32 %58
}