; Function Attrs: nounwind uwtable
define range(i32 -1, 1) i32 @H5L_unregister(i32 noundef %0) local_unnamed_addr #0 {
  %2 = load i64, ptr @H5L_table_used_g, align 8
  %.not = icmp eq i64 %2, 0
  br i1 %.not, label %._crit_edge, label %.lr.ph

.lr.ph:                                           ; preds = %1
  %3 = load ptr, ptr @H5L_table_g, align 8
  br label %4

4:                                                ; preds = %.lr.ph, %8
  %.01014 = phi i64 [ 0, %.lr.ph ], [ %9, %8 ]
  %5 = getelementptr inbounds %struct.H5L_class_t, ptr %3, i64 %.01014, i32 1
  %6 = load i32, ptr %5, align 4
  %7 = icmp eq i32 %6, %0
  br i1 %7, label %13, label %8

8:                                                ; preds = %4
  %9 = add nuw i64 %.01014, 1
  %exitcond.not = icmp eq i64 %9, %2
  br i1 %exitcond.not, label %._crit_edge, label %4

._crit_edge:                                      ; preds = %8, %1
  %10 = load i64, ptr @H5E_LINK_g, align 8
  %11 = load i64, ptr @H5E_NOTREGISTERED_g, align 8
  %12 = tail call i32 (ptr, ptr, i32, i64, i64, ptr, ...) @H5E_printf_stack(ptr noundef nonnull @.str, ptr noundef nonnull @__func__.H5L_unregister, i32 noundef 378, i64 noundef %10, i64 noundef %11, ptr noundef nonnull @.str.4) #10
  br label %20

13:                                               ; preds = %4
  %14 = getelementptr %struct.H5L_class_t, ptr %3, i64 %.01014
  %15 = getelementptr i8, ptr %14, i64 64
  %16 = xor i64 %.01014, -1
  %17 = add i64 %2, %16
  %18 = shl i64 %17, 6
  tail call void @llvm.memmove.p0.p0.i64(ptr align 8 %14, ptr align 8 %15, i64 %18, i1 false)
  %19 = add i64 %2, -1
  store i64 %19, ptr @H5L_table_used_g, align 8
  br label %20

20:                                               ; preds = %13, %._crit_edge
  %.0 = phi i32 [ -1, %._crit_edge ], [ 0, %13 ]
  ret i32 %.0
}